; Function Attrs: mustprogress nofree norecurse nounwind memory(readwrite, inaccessiblemem: none) uwtable
define void @_ZN32pxrInternal_v0_24__pxrReserved__12TfBigRWMutex13_ReleaseWriteEv(ptr noundef nonnull align 8 captures(none) dereferenceable(9) %0) local_unnamed_addr #3 align 2 {
  %2 = getelementptr inbounds nuw i8, ptr %0, i64 8
  store atomic i8 0, ptr %2 seq_cst, align 8
  %3 = load ptr, ptr %0, align 8
  br label %4

4:                                                ; preds = %1, %4
  %.0.idx5 = phi i64 [ 0, %1 ], [ %.0.add, %4 ]
  %.0.ptr = getelementptr inbounds nuw i8, ptr %3, i64 %.0.idx5
  %5 = atomicrmw and ptr %.0.ptr, i32 -2 seq_cst, align 4
  %.0.add = add nuw nsw i64 %.0.idx5, 64
  %.not = icmp eq i64 %.0.add, 1024
  br i1 %.not, label %6, label %4, !llvm.loop !11

6:                                                ; preds = %4
  ret void
}